; ModuleID = '28/1818.c'
source_filename = "28/1818.c"
target datalayout = "e-m:e-p270:32:32-p271:32:32-p272:64:64-i64:64-f80:128-n8:16:32:64-S128"
target triple = "x86_64-pc-linux-gnu"

@.str = private unnamed_addr constant [2 x i8] c",\00", align 1
@.str.1 = private unnamed_addr constant [3 x i8] c"%d\00", align 1

; Function Attrs: noinline nounwind uwtable
define dso_local i32 @main() #0 {
  %1 = alloca i32, align 4
  %2 = alloca i32, align 4
  %3 = alloca i32, align 4
  %4 = alloca i32, align 4
  %5 = alloca i32, align 4
  %6 = alloca [100 x i8], align 16
  store i32 0, i32* %1, align 4
  store i32 0, i32* %3, align 4
  %7 = getelementptr inbounds [100 x i8], [100 x i8]* %6, i64 0, i64 0
  %8 = call i32 (i8*, ...) bitcast (i32 (...)* @gets to i32 (i8*, ...)*)(i8* %7)
  %9 = getelementptr inbounds [100 x i8], [100 x i8]* %6, i64 0, i64 0
  %10 = call i64 @strlen(i8* %9) #3
  %11 = trunc i64 %10 to i32
  store i32 %11, i32* %2, align 4
  store i32 0, i32* %4, align 4
  br label %12

12:                                               ; preds = %61, %0
  %13 = load i32, i32* %4, align 4
  %14 = load i32, i32* %2, align 4
  %15 = icmp slt i32 %13, %14
  br i1 %15, label %16, label %64

16:                                               ; preds = %12
  store i32 0, i32* %5, align 4
  %17 = load i32, i32* %4, align 4
  %18 = sext i32 %17 to i64
  %19 = getelementptr inbounds [100 x i8], [100 x i8]* %6, i64 0, i64 %18
  %20 = load i8, i8* %19, align 1
  %21 = sext i8 %20 to i32
  %22 = icmp eq i32 %21, 32
  br i1 %22, label %23, label %24

23:                                               ; preds = %16
  br label %61

24:                                               ; preds = %16
  %25 = load i32, i32* %3, align 4
  %26 = icmp ne i32 %25, 0
  br i1 %26, label %27, label %29

27:                                               ; preds = %24
  %28 = call i32 (i8*, ...) @printf(i8* getelementptr inbounds ([2 x i8], [2 x i8]* @.str, i64 0, i64 0))
  br label %29

29:                                               ; preds = %27, %24
  br label %30

30:                                               ; preds = %56, %29
  %31 = load i32, i32* %4, align 4
  %32 = load i32, i32* %2, align 4
  %33 = icmp slt i32 %31, %32
  br i1 %33, label %34, label %59

34:                                               ; preds = %30
  %35 = load i32, i32* %4, align 4
  %36 = sext i32 %35 to i64
  %37 = getelementptr inbounds [100 x i8], [100 x i8]* %6, i64 0, i64 %36
  %38 = load i8, i8* %37, align 1
  %39 = sext i8 %38 to i32
  %40 = icmp eq i32 %39, 32
  br i1 %40, label %41, label %44

41:                                               ; preds = %34
  %42 = load i32, i32* %5, align 4
  %43 = call i32 (i8*, ...) @printf(i8* getelementptr inbounds ([3 x i8], [3 x i8]* @.str.1, i64 0, i64 0), i32 %42)
  store i32 1, i32* %3, align 4
  br label %59

44:                                               ; preds = %34
  %45 = load i32, i32* %4, align 4
  %46 = load i32, i32* %2, align 4
  %47 = sub nsw i32 %46, 1
  %48 = icmp eq i32 %45, %47
  br i1 %48, label %49, label %53

49:                                               ; preds = %44
  %50 = load i32, i32* %5, align 4
  %51 = add nsw i32 %50, 1
  %52 = call i32 (i8*, ...) @printf(i8* getelementptr inbounds ([3 x i8], [3 x i8]* @.str.1, i64 0, i64 0), i32 %51)
  store i32 1, i32* %3, align 4
  br label %59

53:                                               ; preds = %44
  %54 = load i32, i32* %5, align 4
  %55 = add nsw i32 %54, 1
  store i32 %55, i32* %5, align 4
  br label %56

56:                                               ; preds = %53
  %57 = load i32, i32* %4, align 4
  %58 = add nsw i32 %57, 1
  store i32 %58, i32* %4, align 4
  br label %30

59:                                               ; preds = %49, %41, %30
  br label %60

60:                                               ; preds = %59
  br label %61

61:                                               ; preds = %60, %23
  %62 = load i32, i32* %4, align 4
  %63 = add nsw i32 %62, 1
  store i32 %63, i32* %4, align 4
  br label %12

64:                                               ; preds = %12
  ret i32 0
}

declare dso_local i32 @gets(...) #1

; Function Attrs: nounwind readonly
declare dso_local i64 @strlen(i8*) #2

declare dso_local i32 @printf(i8*, ...) #1


!llvm.module.flags = !{!0}
!llvm.ident = !{!1}

!0 = !{i32 1, !"wchar_size", i32 4}
!1 = !{!"clang version 10.0.0-4ubuntu1 "}
